target datalayout = "e-m:e-p270:32:32-p271:32:32-p272:64:64-i64:64-i128:128-f80:128-n8:16:32:64-S128"
target triple = "x86_64-pc-linux-gnu"

%"class.std::__cxx11::basic_string" = type { %"struct.std::__cxx11::basic_string<char>::_Alloc_hider", i64, %union.anon }
%"struct.std::__cxx11::basic_string<char>::_Alloc_hider" = type { ptr }
%union.anon = type { i64, [8 x i8] }
%"class.open_spiel::dots_and_boxes::Move" = type { i32, i32, i32, i32, i32 }

@.str.15 = private unnamed_addr constant [148 x i8] c"generated/home/dtcxzyw/WorkSpace/Projects/compilers/llvm-opt-benchmark/bench/openspiel/open_spiel/open_spiel/games/dots_and_boxes/dots_and_boxes.cc\00", align 1
@.str.16 = private unnamed_addr constant [2 x i8] c":\00", align 1
@.str.17 = private unnamed_addr constant [2 x i8] c" \00", align 1
@.str.18 = private unnamed_addr constant [21 x i8] c"row_ < num_rows_ + 1\00", align 1
@.str.19 = private unnamed_addr constant [6 x i8] c"\0Arow_\00", align 1
@.str.20 = private unnamed_addr constant [4 x i8] c" = \00", align 1
@.str.21 = private unnamed_addr constant [19 x i8] c", num_rows_ + 1 = \00", align 1
@.str.22 = private unnamed_addr constant [21 x i8] c"col_ < num_cols_ + 1\00", align 1
@.str.23 = private unnamed_addr constant [6 x i8] c"\0Acol_\00", align 1
@.str.24 = private unnamed_addr constant [19 x i8] c", num_cols_ + 1 = \00", align 1

; Function Attrs: mustprogress uwtable
define void @_ZN10open_spiel14dots_and_boxes4MoveC2Elii(ptr noundef nonnull align 4 dereferenceable(20) %0, i64 noundef %1, i32 noundef %2, i32 noundef %3) unnamed_addr #4 align 2 personality ptr @__gxx_personality_v0 {
  %5 = alloca ptr, align 8
  %6 = alloca i64, align 8
  %7 = alloca i32, align 4
  %8 = alloca i32, align 4
  %9 = alloca i32, align 4
  %10 = alloca i32, align 4
  %11 = alloca i32, align 4
  %12 = alloca %"class.std::__cxx11::basic_string", align 8
  %13 = alloca i32, align 4
  %14 = alloca ptr, align 8
  %15 = alloca i32, align 4
  %16 = alloca i32, align 4
  %17 = alloca i32, align 4
  %18 = alloca %"class.std::__cxx11::basic_string", align 8
  %19 = alloca i32, align 4
  store ptr %0, ptr %5, align 8
  store i64 %1, ptr %6, align 8
  store i32 %2, ptr %7, align 4
  store i32 %3, ptr %8, align 4
  %20 = load ptr, ptr %5, align 8
  %21 = load i32, ptr %7, align 4
  %22 = getelementptr inbounds nuw %"class.open_spiel::dots_and_boxes::Move", ptr %20, i32 0, i32 3
  store i32 %21, ptr %22, align 4
  %23 = load i32, ptr %8, align 4
  %24 = getelementptr inbounds nuw %"class.open_spiel::dots_and_boxes::Move", ptr %20, i32 0, i32 4
  store i32 %23, ptr %24, align 4
  %25 = getelementptr inbounds nuw %"class.open_spiel::dots_and_boxes::Move", ptr %20, i32 0, i32 3
  %26 = load i32, ptr %25, align 4
  %27 = add nsw i32 %26, 1
  %28 = getelementptr inbounds nuw %"class.open_spiel::dots_and_boxes::Move", ptr %20, i32 0, i32 4
  %29 = load i32, ptr %28, align 4
  %30 = mul nsw i32 %27, %29
  store i32 %30, ptr %9, align 4
  %31 = load i64, ptr %6, align 8
  %32 = load i32, ptr %9, align 4
  %33 = sext i32 %32 to i64
  %34 = icmp slt i64 %31, %33
  br i1 %34, label %35, label %51

35:                                               ; preds = %4
  %36 = getelementptr inbounds nuw %"class.open_spiel::dots_and_boxes::Move", ptr %20, i32 0, i32 2
  store i32 0, ptr %36, align 4
  %37 = load i64, ptr %6, align 8
  %38 = getelementptr inbounds nuw %"class.open_spiel::dots_and_boxes::Move", ptr %20, i32 0, i32 4
  %39 = load i32, ptr %38, align 4
  %40 = sext i32 %39 to i64
  %41 = sdiv i64 %37, %40
  %42 = trunc i64 %41 to i32
  %43 = getelementptr inbounds nuw %"class.open_spiel::dots_and_boxes::Move", ptr %20, i32 0, i32 0
  store i32 %42, ptr %43, align 4
  %44 = load i64, ptr %6, align 8
  %45 = getelementptr inbounds nuw %"class.open_spiel::dots_and_boxes::Move", ptr %20, i32 0, i32 4
  %46 = load i32, ptr %45, align 4
  %47 = sext i32 %46 to i64
  %48 = srem i64 %44, %47
  %49 = trunc i64 %48 to i32
  %50 = getelementptr inbounds nuw %"class.open_spiel::dots_and_boxes::Move", ptr %20, i32 0, i32 1
  store i32 %49, ptr %50, align 4
  br label %73

51:                                               ; preds = %4
  %52 = load i32, ptr %9, align 4
  %53 = sext i32 %52 to i64
  %54 = load i64, ptr %6, align 8
  %55 = sub nsw i64 %54, %53
  store i64 %55, ptr %6, align 8
  %56 = getelementptr inbounds nuw %"class.open_spiel::dots_and_boxes::Move", ptr %20, i32 0, i32 2
  store i32 1, ptr %56, align 4
  %57 = load i64, ptr %6, align 8
  %58 = getelementptr inbounds nuw %"class.open_spiel::dots_and_boxes::Move", ptr %20, i32 0, i32 4
  %59 = load i32, ptr %58, align 4
  %60 = add nsw i32 %59, 1
  %61 = sext i32 %60 to i64
  %62 = sdiv i64 %57, %61
  %63 = trunc i64 %62 to i32
  %64 = getelementptr inbounds nuw %"class.open_spiel::dots_and_boxes::Move", ptr %20, i32 0, i32 0
  store i32 %63, ptr %64, align 4
  %65 = load i64, ptr %6, align 8
  %66 = getelementptr inbounds nuw %"class.open_spiel::dots_and_boxes::Move", ptr %20, i32 0, i32 4
  %67 = load i32, ptr %66, align 4
  %68 = add nsw i32 %67, 1
  %69 = sext i32 %68 to i64
  %70 = srem i64 %65, %69
  %71 = trunc i64 %70 to i32
  %72 = getelementptr inbounds nuw %"class.open_spiel::dots_and_boxes::Move", ptr %20, i32 0, i32 1
  store i32 %71, ptr %72, align 4
  br label %73

73:                                               ; preds = %51, %35
  br label %74

74:                                               ; preds = %73
  %75 = getelementptr inbounds nuw %"class.open_spiel::dots_and_boxes::Move", ptr %20, i32 0, i32 0
  %76 = load i32, ptr %75, align 4
  store i32 %76, ptr %10, align 4
  %77 = getelementptr inbounds nuw %"class.open_spiel::dots_and_boxes::Move", ptr %20, i32 0, i32 3
  %78 = load i32, ptr %77, align 4
  %79 = add nsw i32 %78, 1
  store i32 %79, ptr %11, align 4
  %80 = load i32, ptr %10, align 4
  %81 = load i32, ptr %11, align 4
  %82 = icmp slt i32 %80, %81
  br i1 %82, label %89, label %83

83:                                               ; preds = %74
  store i32 136, ptr %13, align 4
  call void @_ZN10open_spiel8internal11SpielStrCatIJRA148_KcRA2_S2_iS6_RA21_S2_RA6_S2_RA4_S2_RiRA19_S2_SD_EEENSt7__cxx1112basic_stringIcSt11char_traitsIcESaIcEEEDpOT_(ptr dead_on_unwind writable sret(%"class.std::__cxx11::basic_string") align 8 %12, ptr noundef nonnull align 1 dereferenceable(148) @.str.15, ptr noundef nonnull align 1 dereferenceable(2) @.str.16, ptr noundef nonnull align 4 dereferenceable(4) %13, ptr noundef nonnull align 1 dereferenceable(2) @.str.17, ptr noundef nonnull align 1 dereferenceable(21) @.str.18, ptr noundef nonnull align 1 dereferenceable(6) @.str.19, ptr noundef nonnull align 1 dereferenceable(4) @.str.20, ptr noundef nonnull align 4 dereferenceable(4) %10, ptr noundef nonnull align 1 dereferenceable(19) @.str.21, ptr noundef nonnull align 4 dereferenceable(4) %11)
  invoke void @_ZN10open_spiel15SpielFatalErrorERKNSt7__cxx1112basic_stringIcSt11char_traitsIcESaIcEEE(ptr noundef nonnull align 8 dereferenceable(32) %12) #15
          to label %84 unwind label %85

84:                                               ; preds = %83
  unreachable

85:                                               ; preds = %83
  %86 = landingpad { ptr, i32 }
          cleanup
  %87 = extractvalue { ptr, i32 } %86, 0
  store ptr %87, ptr %14, align 8
  %88 = extractvalue { ptr, i32 } %86, 1
  store i32 %88, ptr %15, align 4
  call void @_ZNSt7__cxx1112basic_stringIcSt11char_traitsIcESaIcEED1Ev(ptr noundef nonnull align 8 dereferenceable(32) %12) #3
  br label %108

89:                                               ; preds = %74
  br label %90

90:                                               ; preds = %89
  br label %91

91:                                               ; preds = %90
  %92 = getelementptr inbounds nuw %"class.open_spiel::dots_and_boxes::Move", ptr %20, i32 0, i32 1
  %93 = load i32, ptr %92, align 4
  store i32 %93, ptr %16, align 4
  %94 = getelementptr inbounds nuw %"class.open_spiel::dots_and_boxes::Move", ptr %20, i32 0, i32 4
  %95 = load i32, ptr %94, align 4
  %96 = add nsw i32 %95, 1
  store i32 %96, ptr %17, align 4
  %97 = load i32, ptr %16, align 4
  %98 = load i32, ptr %17, align 4
  %99 = icmp slt i32 %97, %98
  br i1 %99, label %106, label %100

100:                                              ; preds = %91
  store i32 137, ptr %19, align 4
  call void @_ZN10open_spiel8internal11SpielStrCatIJRA148_KcRA2_S2_iS6_RA21_S2_RA6_S2_RA4_S2_RiRA19_S2_SD_EEENSt7__cxx1112basic_stringIcSt11char_traitsIcESaIcEEEDpOT_(ptr dead_on_unwind writable sret(%"class.std::__cxx11::basic_string") align 8 %18, ptr noundef nonnull align 1 dereferenceable(148) @.str.15, ptr noundef nonnull align 1 dereferenceable(2) @.str.16, ptr noundef nonnull align 4 dereferenceable(4) %19, ptr noundef nonnull align 1 dereferenceable(2) @.str.17, ptr noundef nonnull align 1 dereferenceable(21) @.str.22, ptr noundef nonnull align 1 dereferenceable(6) @.str.23, ptr noundef nonnull align 1 dereferenceable(4) @.str.20, ptr noundef nonnull align 4 dereferenceable(4) %16, ptr noundef nonnull align 1 dereferenceable(19) @.str.24, ptr noundef nonnull align 4 dereferenceable(4) %17)
  invoke void @_ZN10open_spiel15SpielFatalErrorERKNSt7__cxx1112basic_stringIcSt11char_traitsIcESaIcEEE(ptr noundef nonnull align 8 dereferenceable(32) %18) #15
          to label %101 unwind label %102

101:                                              ; preds = %100
  unreachable

102:                                              ; preds = %100
  %103 = landingpad { ptr, i32 }
          cleanup
  %104 = extractvalue { ptr, i32 } %103, 0
  store ptr %104, ptr %14, align 8
  %105 = extractvalue { ptr, i32 } %103, 1
  store i32 %105, ptr %15, align 4
  call void @_ZNSt7__cxx1112basic_stringIcSt11char_traitsIcESaIcEED1Ev(ptr noundef nonnull align 8 dereferenceable(32) %18) #3
  br label %108

106:                                              ; preds = %91
  br label %107

107:                                              ; preds = %106
  ret void

108:                                              ; preds = %102, %85
  %109 = load ptr, ptr %14, align 8
  %110 = load i32, ptr %15, align 4
  %111 = insertvalue { ptr, i32 } poison, ptr %109, 0
  %112 = insertvalue { ptr, i32 } %111, i32 %110, 1
  resume { ptr, i32 } %112
}