; Function Attrs: mustprogress uwtable
define void @_ZN10open_spiel14dots_and_boxes4MoveC2Elii(ptr nocapture noundef nonnull writeonly align 4 dereferenceable(20) %0, i64 noundef %1, i32 noundef %2, i32 noundef %3) unnamed_addr #3 align 2 personality ptr @__gxx_personality_v0 {
  %5 = alloca i32, align 4
  %6 = alloca i32, align 4
  %7 = alloca %"class.std::__cxx11::basic_string", align 8
  %8 = alloca i32, align 4
  %9 = alloca i32, align 4
  %10 = alloca i32, align 4
  %11 = alloca %"class.std::__cxx11::basic_string", align 8
  %12 = alloca i32, align 4
  %13 = getelementptr inbounds nuw i8, ptr %0, i64 12
  store i32 %2, ptr %13, align 4
  %14 = getelementptr inbounds nuw i8, ptr %0, i64 16
  store i32 %3, ptr %14, align 4
  %15 = add nsw i32 %2, 1
  %16 = mul nsw i32 %15, %3
  %17 = sext i32 %16 to i64
  %18 = icmp sge i64 %1, %17
  %19 = zext i1 %18 to i32
  %.sink22 = add nsw i32 %3, %19
  %20 = select i1 %18, i64 %17, i64 0
  %.sink20 = sub nsw i64 %1, %20
  %.sink18 = zext i1 %18 to i32
  %21 = sext i32 %.sink22 to i64
  %22 = sdiv i64 %.sink20, %21
  %23 = srem i64 %.sink20, %21
  %24 = trunc i64 %23 to i32
  %.sink17 = trunc i64 %22 to i32
  %25 = getelementptr inbounds nuw i8, ptr %0, i64 8
  store i32 %.sink18, ptr %25, align 4
  store i32 %.sink17, ptr %0, align 4
  %26 = getelementptr inbounds nuw i8, ptr %0, i64 4
  store i32 %24, ptr %26, align 4
  store i32 %.sink17, ptr %5, align 4
  store i32 %15, ptr %6, align 4
  %.not = icmp slt i32 %2, %.sink17
  br i1 %.not, label %27, label %31

27:                                               ; preds = %4
  store i32 136, ptr %8, align 4
  call void @_ZN10open_spiel8internal11SpielStrCatIJRA148_KcRA2_S2_iS6_RA21_S2_RA6_S2_RA4_S2_RiRA19_S2_SD_EEENSt7__cxx1112basic_stringIcSt11char_traitsIcESaIcEEEDpOT_(ptr dead_on_unwind nonnull writable sret(%"class.std::__cxx11::basic_string") align 8 %7, ptr noundef nonnull align 1 dereferenceable(148) @.str.15, ptr noundef nonnull align 1 dereferenceable(2) @.str.16, ptr noundef nonnull align 4 dereferenceable(4) %8, ptr noundef nonnull align 1 dereferenceable(2) @.str.17, ptr noundef nonnull align 1 dereferenceable(21) @.str.18, ptr noundef nonnull align 1 dereferenceable(6) @.str.19, ptr noundef nonnull align 1 dereferenceable(4) @.str.20, ptr noundef nonnull align 4 dereferenceable(4) %5, ptr noundef nonnull align 1 dereferenceable(19) @.str.21, ptr noundef nonnull align 4 dereferenceable(4) %6)
  invoke void @_ZN10open_spiel15SpielFatalErrorERKNSt7__cxx1112basic_stringIcSt11char_traitsIcESaIcEEE(ptr noundef nonnull align 8 dereferenceable(32) %7) #25
          to label %28 unwind label %29

28:                                               ; preds = %27
  unreachable

29:                                               ; preds = %27
  %30 = landingpad { ptr, i32 }
          cleanup
  br label %38

31:                                               ; preds = %4
  store i32 %24, ptr %9, align 4
  %32 = add nsw i32 %3, 1
  store i32 %32, ptr %10, align 4
  %.not15 = icmp slt i32 %3, %24
  br i1 %.not15, label %33, label %37

33:                                               ; preds = %31
  store i32 137, ptr %12, align 4
  call void @_ZN10open_spiel8internal11SpielStrCatIJRA148_KcRA2_S2_iS6_RA21_S2_RA6_S2_RA4_S2_RiRA19_S2_SD_EEENSt7__cxx1112basic_stringIcSt11char_traitsIcESaIcEEEDpOT_(ptr dead_on_unwind nonnull writable sret(%"class.std::__cxx11::basic_string") align 8 %11, ptr noundef nonnull align 1 dereferenceable(148) @.str.15, ptr noundef nonnull align 1 dereferenceable(2) @.str.16, ptr noundef nonnull align 4 dereferenceable(4) %12, ptr noundef nonnull align 1 dereferenceable(2) @.str.17, ptr noundef nonnull align 1 dereferenceable(21) @.str.22, ptr noundef nonnull align 1 dereferenceable(6) @.str.23, ptr noundef nonnull align 1 dereferenceable(4) @.str.20, ptr noundef nonnull align 4 dereferenceable(4) %9, ptr noundef nonnull align 1 dereferenceable(19) @.str.24, ptr noundef nonnull align 4 dereferenceable(4) %10)
  invoke void @_ZN10open_spiel15SpielFatalErrorERKNSt7__cxx1112basic_stringIcSt11char_traitsIcESaIcEEE(ptr noundef nonnull align 8 dereferenceable(32) %11) #25
          to label %34 unwind label %35

34:                                               ; preds = %33
  unreachable

35:                                               ; preds = %33
  %36 = landingpad { ptr, i32 }
          cleanup
  br label %38

37:                                               ; preds = %31
  ret void

38:                                               ; preds = %35, %29
  %.sink23 = phi ptr [ %11, %35 ], [ %7, %29 ]
  %.pn = phi { ptr, i32 } [ %36, %35 ], [ %30, %29 ]
  call void @_ZNSt7__cxx1112basic_stringIcSt11char_traitsIcESaIcEED1Ev(ptr noundef nonnull align 8 dereferenceable(32) %.sink23) #26
  resume { ptr, i32 } %.pn
}